target datalayout = "e-m:e-p270:32:32-p271:32:32-p272:64:64-i64:64-i128:128-f80:128-n8:16:32:64-S128"
target triple = "x86_64-pc-linux-gnu"

%struct.expert_field = type { i32, i32 }
%struct._asn1_ctx_t = type { i32, i32, i8, ptr, ptr, ptr, ptr, ptr, %struct.anon, %struct.anon.2, %struct.anon.3, ptr }
%struct.anon = type { i32, i8, i8, i8, ptr, ptr, i32, i32, ptr, ptr, ptr, %union.anon }
%union.anon = type { %struct.anon.0 }
%struct.anon.0 = type { ptr }
%struct.anon.2 = type { ptr, ptr, ptr }
%struct.anon.3 = type { i32, i8, ptr, i32, i32, ptr, ptr, ptr, %union.anon.4 }
%union.anon.4 = type { %struct.anon.5 }
%struct.anon.5 = type { ptr }
%struct._packet_info = type { ptr, ptr, i32, i32, %struct.nstime_t, %struct.nstime_t, %struct.nstime_t, i8, ptr, ptr, ptr, ptr, %struct._address, %struct._address, %struct._address, %struct._address, %struct._address, %struct._address, i32, ptr, i8, [3 x i8], %struct.anon.7, i32, i32, i32, i32, ptr, i8, ptr, ptr, i16, i16, i32, i32, i16, i32, i32, ptr, ptr, ptr, i8, i8, i16, i16, i16, i32, i16, i16, ptr, ptr, ptr, ptr, ptr, i32, i32 }
%struct.nstime_t = type { i64, i32 }
%struct._address = type { i32, i32, ptr, ptr }
%struct.anon.7 = type { i8, [3 x i8] }

@.str.6 = private unnamed_addr constant [6 x i8] c" (%s)\00", align 1
@ett_p1_unknown_standard_extension = internal global i32 0, align 4
@ei_p1_unknown_standard_extension = internal global %struct.expert_field zeroinitializer, align 4
@p1_extension_dissector_table = internal global ptr null, align 8
@.str.1664 = private unnamed_addr constant [22 x i8] c"standard-extension %d\00", align 1
@.str.1665 = private unnamed_addr constant [110 x i8] c"Dissector for standard-extension %d not implemented.  Contact Wireshark developers if you want this supported\00", align 1

; Function Attrs: null_pointer_is_valid sspstrong uwtable
define internal i32 @dissect_p1_ExtensionValue(i1 noundef zeroext %0, ptr noundef %1, i32 noundef %2, ptr noundef %3, ptr noundef %4, i32 noundef %5) #0 {
  %7 = alloca i8, align 1
  %8 = alloca ptr, align 8
  %9 = alloca i32, align 4
  %10 = alloca ptr, align 8
  %11 = alloca ptr, align 8
  %12 = alloca i32, align 4
  %13 = alloca ptr, align 8
  %14 = alloca ptr, align 8
  %15 = alloca ptr, align 8
  %16 = zext i1 %0 to i8
  store i8 %16, ptr %7, align 1
  store ptr %1, ptr %8, align 8
  store i32 %2, ptr %9, align 4
  store ptr %3, ptr %10, align 8
  store ptr %4, ptr %11, align 8
  store i32 %5, ptr %12, align 4
  call void @llvm.lifetime.start.p0(i64 8, ptr %13) #5
  %17 = load ptr, ptr %10, align 8
  %18 = getelementptr inbounds nuw %struct._asn1_ctx_t, ptr %17, i32 0, i32 8
  %19 = getelementptr inbounds nuw %struct.anon, ptr %18, i32 0, i32 3
  %20 = load i8, ptr %19, align 2, !range !6, !noundef !7
  %21 = trunc i8 %20 to i1
  br i1 %21, label %22, label %66

22:                                               ; preds = %6
  %23 = load ptr, ptr %11, align 8
  %24 = load ptr, ptr %10, align 8
  %25 = getelementptr inbounds nuw %struct._asn1_ctx_t, ptr %24, i32 0, i32 8
  %26 = getelementptr inbounds nuw %struct.anon, ptr %25, i32 0, i32 6
  %27 = load i32, ptr %26, align 8
  %28 = call ptr @val_to_str(i32 noundef %27, ptr noundef @p1_StandardExtension_vals, ptr noundef @.str.1664)
  call void (ptr, ptr, ...) @proto_item_append_text(ptr noundef %23, ptr noundef @.str.6, ptr noundef %28)
  %29 = load ptr, ptr @p1_extension_dissector_table, align 8
  %30 = load ptr, ptr %10, align 8
  %31 = getelementptr inbounds nuw %struct._asn1_ctx_t, ptr %30, i32 0, i32 8
  %32 = getelementptr inbounds nuw %struct.anon, ptr %31, i32 0, i32 6
  %33 = load i32, ptr %32, align 8
  %34 = load ptr, ptr %8, align 8
  %35 = load ptr, ptr %10, align 8
  %36 = getelementptr inbounds nuw %struct._asn1_ctx_t, ptr %35, i32 0, i32 3
  %37 = load ptr, ptr %36, align 8
  %38 = load ptr, ptr %11, align 8
  %39 = call i32 @dissector_try_uint(ptr noundef %29, i32 noundef %33, ptr noundef %34, ptr noundef %37, ptr noundef %38)
  %40 = icmp ne i32 %39, 0
  br i1 %40, label %41, label %44

41:                                               ; preds = %22
  %42 = load ptr, ptr %8, align 8
  %43 = call i32 @tvb_reported_length(ptr noundef %42)
  store i32 %43, ptr %9, align 4
  br label %65

44:                                               ; preds = %22
  call void @llvm.lifetime.start.p0(i64 8, ptr %14) #5
  call void @llvm.lifetime.start.p0(i64 8, ptr %15) #5
  %45 = load ptr, ptr %11, align 8
  %46 = load ptr, ptr %8, align 8
  %47 = load i32, ptr @ett_p1_unknown_standard_extension, align 4
  %48 = load ptr, ptr %10, align 8
  %49 = getelementptr inbounds nuw %struct._asn1_ctx_t, ptr %48, i32 0, i32 8
  %50 = getelementptr inbounds nuw %struct.anon, ptr %49, i32 0, i32 6
  %51 = load i32, ptr %50, align 8
  %52 = call ptr (ptr, ptr, i32, i32, i32, ptr, ptr, ...) @proto_tree_add_subtree_format(ptr noundef %45, ptr noundef %46, i32 noundef 0, i32 noundef -1, i32 noundef %47, ptr noundef %14, ptr noundef @.str.1665, i32 noundef %51)
  store ptr %52, ptr %15, align 8
  %53 = load ptr, ptr %10, align 8
  %54 = getelementptr inbounds nuw %struct._asn1_ctx_t, ptr %53, i32 0, i32 3
  %55 = load ptr, ptr %54, align 8
  %56 = load ptr, ptr %8, align 8
  %57 = load i32, ptr %9, align 4
  %58 = load ptr, ptr %15, align 8
  %59 = call i32 @dissect_unknown_ber(ptr noundef %55, ptr noundef %56, i32 noundef %57, ptr noundef %58)
  store i32 %59, ptr %9, align 4
  %60 = load ptr, ptr %10, align 8
  %61 = getelementptr inbounds nuw %struct._asn1_ctx_t, ptr %60, i32 0, i32 3
  %62 = load ptr, ptr %61, align 8
  %63 = load ptr, ptr %14, align 8
  %64 = call ptr @expert_add_info(ptr noundef %62, ptr noundef %63, ptr noundef @ei_p1_unknown_standard_extension)
  call void @llvm.lifetime.end.p0(i64 8, ptr %15) #5
  call void @llvm.lifetime.end.p0(i64 8, ptr %14) #5
  br label %65

65:                                               ; preds = %44, %41
  br label %110

66:                                               ; preds = %6
  %67 = load ptr, ptr %10, align 8
  %68 = getelementptr inbounds nuw %struct._asn1_ctx_t, ptr %67, i32 0, i32 8
  %69 = getelementptr inbounds nuw %struct.anon, ptr %68, i32 0, i32 2
  %70 = load i8, ptr %69, align 1, !range !6, !noundef !7
  %71 = trunc i8 %70 to i1
  br i1 %71, label %72, label %109

72:                                               ; preds = %66
  %73 = load ptr, ptr %10, align 8
  %74 = getelementptr inbounds nuw %struct._asn1_ctx_t, ptr %73, i32 0, i32 8
  %75 = getelementptr inbounds nuw %struct.anon, ptr %74, i32 0, i32 5
  %76 = load ptr, ptr %75, align 8
  %77 = load ptr, ptr %8, align 8
  %78 = load i32, ptr %9, align 4
  %79 = load ptr, ptr %10, align 8
  %80 = getelementptr inbounds nuw %struct._asn1_ctx_t, ptr %79, i32 0, i32 3
  %81 = load ptr, ptr %80, align 8
  %82 = load ptr, ptr %11, align 8
  %83 = load ptr, ptr %10, align 8
  %84 = getelementptr inbounds nuw %struct._asn1_ctx_t, ptr %83, i32 0, i32 7
  %85 = load ptr, ptr %84, align 8
  %86 = call i32 @call_ber_oid_callback(ptr noundef %76, ptr noundef %77, i32 noundef %78, ptr noundef %81, ptr noundef %82, ptr noundef %85)
  store i32 %86, ptr %9, align 4
  %87 = load ptr, ptr %10, align 8
  %88 = getelementptr inbounds nuw %struct._asn1_ctx_t, ptr %87, i32 0, i32 3
  %89 = load ptr, ptr %88, align 8
  %90 = getelementptr inbounds nuw %struct._packet_info, ptr %89, i32 0, i32 51
  %91 = load ptr, ptr %90, align 8
  %92 = load ptr, ptr %10, align 8
  %93 = getelementptr inbounds nuw %struct._asn1_ctx_t, ptr %92, i32 0, i32 8
  %94 = getelementptr inbounds nuw %struct.anon, ptr %93, i32 0, i32 5
  %95 = load ptr, ptr %94, align 8
  %96 = call ptr @oid_resolved_from_string(ptr noundef %91, ptr noundef %95)
  store ptr %96, ptr %13, align 8
  %97 = load ptr, ptr %11, align 8
  %98 = load ptr, ptr %13, align 8
  %99 = icmp ne ptr %98, null
  br i1 %99, label %100, label %102

100:                                              ; preds = %72
  %101 = load ptr, ptr %13, align 8
  br label %107

102:                                              ; preds = %72
  %103 = load ptr, ptr %10, align 8
  %104 = getelementptr inbounds nuw %struct._asn1_ctx_t, ptr %103, i32 0, i32 8
  %105 = getelementptr inbounds nuw %struct.anon, ptr %104, i32 0, i32 5
  %106 = load ptr, ptr %105, align 8
  br label %107

107:                                              ; preds = %102, %100
  %108 = phi ptr [ %101, %100 ], [ %106, %102 ]
  call void (ptr, ptr, ...) @proto_item_append_text(ptr noundef %97, ptr noundef @.str.6, ptr noundef %108)
  br label %109

109:                                              ; preds = %107, %66
  br label %110

110:                                              ; preds = %109, %65
  %111 = load i32, ptr %9, align 4
  call void @llvm.lifetime.end.p0(i64 8, ptr %13) #5
  ret i32 %111
}