; Function Attrs: null_pointer_is_valid sspstrong uwtable
define internal i32 @dissect_p1_ExtensionValue(i1 zeroext %0, ptr noundef %1, i32 noundef %2, ptr noundef readonly captures(none) %3, ptr noundef %4, i32 %5) #0 {
  %7 = alloca ptr, align 8
  %8 = getelementptr inbounds nuw i8, ptr %3, i64 62
  %9 = load i8, ptr %8, align 2, !range !6, !noundef !7
  %10 = trunc nuw i8 %9 to i1
  br i1 %10, label %11, label %31

11:                                               ; preds = %6
  %12 = getelementptr inbounds nuw i8, ptr %3, i64 80
  %13 = load i32, ptr %12, align 8
  %14 = tail call ptr @val_to_str(i32 noundef %13, ptr noundef nonnull @p1_StandardExtension_vals, ptr noundef nonnull @.str.1664)
  tail call void (ptr, ptr, ...) @proto_item_append_text(ptr noundef %4, ptr noundef nonnull @.str.6, ptr noundef %14)
  %15 = load ptr, ptr @p1_extension_dissector_table, align 8
  %16 = load i32, ptr %12, align 8
  %17 = getelementptr inbounds nuw i8, ptr %3, i64 16
  %18 = load ptr, ptr %17, align 8
  %19 = tail call i32 @dissector_try_uint(ptr noundef %15, i32 noundef %16, ptr noundef %1, ptr noundef %18, ptr noundef %4)
  %.not30 = icmp eq i32 %19, 0
  br i1 %.not30, label %22, label %20

20:                                               ; preds = %11
  %21 = tail call i32 @tvb_reported_length(ptr noundef %1)
  br label %52

22:                                               ; preds = %11
  call void @llvm.lifetime.start.p0(i64 8, ptr nonnull %7) #5
  %23 = load i32, ptr @ett_p1_unknown_standard_extension, align 4
  %24 = load i32, ptr %12, align 8
  %25 = call ptr (ptr, ptr, i32, i32, i32, ptr, ptr, ...) @proto_tree_add_subtree_format(ptr noundef %4, ptr noundef %1, i32 noundef 0, i32 noundef -1, i32 noundef %23, ptr noundef nonnull %7, ptr noundef nonnull @.str.1665, i32 noundef %24)
  %26 = load ptr, ptr %17, align 8
  %27 = call i32 @dissect_unknown_ber(ptr noundef %26, ptr noundef %1, i32 noundef %2, ptr noundef %25)
  %28 = load ptr, ptr %17, align 8
  %29 = load ptr, ptr %7, align 8
  %30 = call ptr @expert_add_info(ptr noundef %28, ptr noundef %29, ptr noundef nonnull @ei_p1_unknown_standard_extension)
  call void @llvm.lifetime.end.p0(i64 8, ptr nonnull %7) #5
  br label %52

31:                                               ; preds = %6
  %32 = getelementptr inbounds nuw i8, ptr %3, i64 61
  %33 = load i8, ptr %32, align 1, !range !6, !noundef !7
  %34 = trunc nuw i8 %33 to i1
  br i1 %34, label %35, label %52

35:                                               ; preds = %31
  %36 = getelementptr inbounds nuw i8, ptr %3, i64 72
  %37 = load ptr, ptr %36, align 8
  %38 = getelementptr inbounds nuw i8, ptr %3, i64 16
  %39 = load ptr, ptr %38, align 8
  %40 = getelementptr inbounds nuw i8, ptr %3, i64 48
  %41 = load ptr, ptr %40, align 8
  %42 = tail call i32 @call_ber_oid_callback(ptr noundef %37, ptr noundef %1, i32 noundef %2, ptr noundef %39, ptr noundef %4, ptr noundef %41)
  %43 = load ptr, ptr %38, align 8
  %44 = getelementptr inbounds nuw i8, ptr %43, i64 408
  %45 = load ptr, ptr %44, align 8
  %46 = load ptr, ptr %36, align 8
  %47 = tail call ptr @oid_resolved_from_string(ptr noundef %45, ptr noundef %46)
  %.not = icmp eq ptr %47, null
  br i1 %.not, label %48, label %50

48:                                               ; preds = %35
  %49 = load ptr, ptr %36, align 8
  br label %50

50:                                               ; preds = %35, %48
  %51 = phi ptr [ %49, %48 ], [ %47, %35 ]
  tail call void (ptr, ptr, ...) @proto_item_append_text(ptr noundef %4, ptr noundef nonnull @.str.6, ptr noundef %51)
  br label %52

52:                                               ; preds = %31, %50, %20, %22
  %.0 = phi i32 [ %21, %20 ], [ %27, %22 ], [ %42, %50 ], [ %2, %31 ]
  ret i32 %.0
}